(i__main__
LogFile
p0
(dp1
S'_installed_files'
p2
(dp3
S'../../../../../../../../cvmfs/atlas.cern.ch/repo/sw/software/x86_64-slc6-gcc49-opt/20.7.9/GAUDI/v26r2p3-lcg81f/GaudiPolicy/cmt/fragments/__init__.py'
p4
S'../../InstallArea/python/DispDilepAthena/__init__.py'
p5
sS'../../DispDilepAthena/genConf/DispDilepAthena'
p6
(dp7
S'../../../DispDilepAthena/genConf/DispDilepAthena/DispDilepAthenaConf.py'
p8
S'../../InstallArea/python/DispDilepAthena/DispDilepAthenaConf.py'
p9
sssb.